target datalayout = "e-m:e-p270:32:32-p271:32:32-p272:64:64-i64:64-i128:128-f80:128-n8:16:32:64-S128"
target triple = "x86_64-pc-linux-gnu"

%"class.cv::xfeatures2d::HarrisLaplaceFeatureDetector_Impl" = type <{ %"class.cv::xfeatures2d::HarrisLaplaceFeatureDetector", i32, float, float, i32, i32, [4 x i8] }>
%"class.cv::xfeatures2d::HarrisLaplaceFeatureDetector" = type { %"class.cv::Feature2D" }
%"class.cv::Feature2D" = type { %"class.cv::Algorithm" }
%"class.cv::Algorithm" = type { ptr }
%"class.cv::FileNode" = type { ptr, i64, i64 }

@.str.3 = private unnamed_addr constant [11 x i8] c"numOctaves\00", align 1
@.str.4 = private unnamed_addr constant [12 x i8] c"corn_thresh\00", align 1
@.str.5 = private unnamed_addr constant [11 x i8] c"DOG_thresh\00", align 1
@.str.6 = private unnamed_addr constant [11 x i8] c"maxCorners\00", align 1
@.str.7 = private unnamed_addr constant [11 x i8] c"num_layers\00", align 1

; Function Attrs: inlinehint mustprogress uwtable
define internal void @_ZN2cvrsIfEEvRKNS_8FileNodeERT_(ptr noundef nonnull align 8 dereferenceable(24) %0, ptr noundef nonnull align 4 dereferenceable(4) %1) #2 {
  %3 = alloca ptr, align 8
  %4 = alloca ptr, align 8
  store ptr %0, ptr %3, align 8, !tbaa !40
  store ptr %1, ptr %4, align 8, !tbaa !12
  %5 = load ptr, ptr %3, align 8, !tbaa !40
  %6 = load ptr, ptr %4, align 8, !tbaa !12
  call void @_ZN2cv4readERKNS_8FileNodeERff(ptr noundef nonnull align 8 dereferenceable(24) %5, ptr noundef nonnull align 4 dereferenceable(4) %6, float noundef 0.000000e+00)
  ret void
}

; Function Attrs: inlinehint mustprogress uwtable
define internal void @_ZN2cvrsIiEEvRKNS_8FileNodeERT_(ptr noundef nonnull align 8 dereferenceable(24) %0, ptr noundef nonnull align 4 dereferenceable(4) %1) #2 {
  %3 = alloca ptr, align 8
  %4 = alloca ptr, align 8
  store ptr %0, ptr %3, align 8, !tbaa !40
  store ptr %1, ptr %4, align 8, !tbaa !9
  %5 = load ptr, ptr %3, align 8, !tbaa !40
  %6 = load ptr, ptr %4, align 8, !tbaa !9
  call void @_ZN2cv4readERKNS_8FileNodeERii(ptr noundef nonnull align 8 dereferenceable(24) %5, ptr noundef nonnull align 4 dereferenceable(4) %6, i32 noundef 0)
  ret void
}

; Function Attrs: mustprogress uwtable
define hidden void @_ZN2cv11xfeatures2d33HarrisLaplaceFeatureDetector_Impl4readERKNS_8FileNodeE(ptr noundef nonnull align 8 dereferenceable(32) %0, ptr noundef nonnull align 8 dereferenceable(24) %1) unnamed_addr #0 align 2 {
  %3 = alloca ptr, align 8
  %4 = alloca ptr, align 8
  %5 = alloca %"class.cv::FileNode", align 8
  %6 = alloca %"class.cv::FileNode", align 8
  %7 = alloca %"class.cv::FileNode", align 8
  %8 = alloca %"class.cv::FileNode", align 8
  %9 = alloca %"class.cv::FileNode", align 8
  %10 = alloca %"class.cv::FileNode", align 8
  %11 = alloca %"class.cv::FileNode", align 8
  %12 = alloca %"class.cv::FileNode", align 8
  %13 = alloca %"class.cv::FileNode", align 8
  %14 = alloca %"class.cv::FileNode", align 8
  store ptr %0, ptr %3, align 8, !tbaa !26
  store ptr %1, ptr %4, align 8, !tbaa !40
  %15 = load ptr, ptr %3, align 8
  call void @llvm.lifetime.start.p0(i64 24, ptr %5) #22
  %16 = load ptr, ptr %4, align 8, !tbaa !40
  call void @_ZNK2cv8FileNodeixEPKc(ptr dead_on_unwind writable sret(%"class.cv::FileNode") align 8 %5, ptr noundef nonnull align 8 dereferenceable(24) %16, ptr noundef @.str.3)
  %17 = call noundef zeroext i1 @_ZNK2cv8FileNode5emptyEv(ptr noundef nonnull align 8 dereferenceable(24) %5)
  %18 = xor i1 %17, true
  call void @llvm.lifetime.end.p0(i64 24, ptr %5) #22
  br i1 %18, label %19, label %22

19:                                               ; preds = %2
  call void @llvm.lifetime.start.p0(i64 24, ptr %6) #22
  %20 = load ptr, ptr %4, align 8, !tbaa !40
  call void @_ZNK2cv8FileNodeixEPKc(ptr dead_on_unwind writable sret(%"class.cv::FileNode") align 8 %6, ptr noundef nonnull align 8 dereferenceable(24) %20, ptr noundef @.str.3)
  %21 = getelementptr inbounds nuw %"class.cv::xfeatures2d::HarrisLaplaceFeatureDetector_Impl", ptr %15, i32 0, i32 1
  call void @_ZN2cvrsIiEEvRKNS_8FileNodeERT_(ptr noundef nonnull align 8 dereferenceable(24) %6, ptr noundef nonnull align 4 dereferenceable(4) %21)
  call void @llvm.lifetime.end.p0(i64 24, ptr %6) #22
  br label %22

22:                                               ; preds = %19, %2
  call void @llvm.lifetime.start.p0(i64 24, ptr %7) #22
  %23 = load ptr, ptr %4, align 8, !tbaa !40
  call void @_ZNK2cv8FileNodeixEPKc(ptr dead_on_unwind writable sret(%"class.cv::FileNode") align 8 %7, ptr noundef nonnull align 8 dereferenceable(24) %23, ptr noundef @.str.4)
  %24 = call noundef zeroext i1 @_ZNK2cv8FileNode5emptyEv(ptr noundef nonnull align 8 dereferenceable(24) %7)
  %25 = xor i1 %24, true
  call void @llvm.lifetime.end.p0(i64 24, ptr %7) #22
  br i1 %25, label %26, label %29

26:                                               ; preds = %22
  call void @llvm.lifetime.start.p0(i64 24, ptr %8) #22
  %27 = load ptr, ptr %4, align 8, !tbaa !40
  call void @_ZNK2cv8FileNodeixEPKc(ptr dead_on_unwind writable sret(%"class.cv::FileNode") align 8 %8, ptr noundef nonnull align 8 dereferenceable(24) %27, ptr noundef @.str.4)
  %28 = getelementptr inbounds nuw %"class.cv::xfeatures2d::HarrisLaplaceFeatureDetector_Impl", ptr %15, i32 0, i32 2
  call void @_ZN2cvrsIfEEvRKNS_8FileNodeERT_(ptr noundef nonnull align 8 dereferenceable(24) %8, ptr noundef nonnull align 4 dereferenceable(4) %28)
  call void @llvm.lifetime.end.p0(i64 24, ptr %8) #22
  br label %29

29:                                               ; preds = %26, %22
  call void @llvm.lifetime.start.p0(i64 24, ptr %9) #22
  %30 = load ptr, ptr %4, align 8, !tbaa !40
  call void @_ZNK2cv8FileNodeixEPKc(ptr dead_on_unwind writable sret(%"class.cv::FileNode") align 8 %9, ptr noundef nonnull align 8 dereferenceable(24) %30, ptr noundef @.str.4)
  %31 = call noundef zeroext i1 @_ZNK2cv8FileNode5emptyEv(ptr noundef nonnull align 8 dereferenceable(24) %9)
  %32 = xor i1 %31, true
  call void @llvm.lifetime.end.p0(i64 24, ptr %9) #22
  br i1 %32, label %33, label %36

33:                                               ; preds = %29
  call void @llvm.lifetime.start.p0(i64 24, ptr %10) #22
  %34 = load ptr, ptr %4, align 8, !tbaa !40
  call void @_ZNK2cv8FileNodeixEPKc(ptr dead_on_unwind writable sret(%"class.cv::FileNode") align 8 %10, ptr noundef nonnull align 8 dereferenceable(24) %34, ptr noundef @.str.5)
  %35 = getelementptr inbounds nuw %"class.cv::xfeatures2d::HarrisLaplaceFeatureDetector_Impl", ptr %15, i32 0, i32 3
  call void @_ZN2cvrsIfEEvRKNS_8FileNodeERT_(ptr noundef nonnull align 8 dereferenceable(24) %10, ptr noundef nonnull align 4 dereferenceable(4) %35)
  call void @llvm.lifetime.end.p0(i64 24, ptr %10) #22
  br label %36

36:                                               ; preds = %33, %29
  call void @llvm.lifetime.start.p0(i64 24, ptr %11) #22
  %37 = load ptr, ptr %4, align 8, !tbaa !40
  call void @_ZNK2cv8FileNodeixEPKc(ptr dead_on_unwind writable sret(%"class.cv::FileNode") align 8 %11, ptr noundef nonnull align 8 dereferenceable(24) %37, ptr noundef @.str.6)
  %38 = call noundef zeroext i1 @_ZNK2cv8FileNode5emptyEv(ptr noundef nonnull align 8 dereferenceable(24) %11)
  %39 = xor i1 %38, true
  call void @llvm.lifetime.end.p0(i64 24, ptr %11) #22
  br i1 %39, label %40, label %43

40:                                               ; preds = %36
  call void @llvm.lifetime.start.p0(i64 24, ptr %12) #22
  %41 = load ptr, ptr %4, align 8, !tbaa !40
  call void @_ZNK2cv8FileNodeixEPKc(ptr dead_on_unwind writable sret(%"class.cv::FileNode") align 8 %12, ptr noundef nonnull align 8 dereferenceable(24) %41, ptr noundef @.str.6)
  %42 = getelementptr inbounds nuw %"class.cv::xfeatures2d::HarrisLaplaceFeatureDetector_Impl", ptr %15, i32 0, i32 4
  call void @_ZN2cvrsIiEEvRKNS_8FileNodeERT_(ptr noundef nonnull align 8 dereferenceable(24) %12, ptr noundef nonnull align 4 dereferenceable(4) %42)
  call void @llvm.lifetime.end.p0(i64 24, ptr %12) #22
  br label %43

43:                                               ; preds = %40, %36
  call void @llvm.lifetime.start.p0(i64 24, ptr %13) #22
  %44 = load ptr, ptr %4, align 8, !tbaa !40
  call void @_ZNK2cv8FileNodeixEPKc(ptr dead_on_unwind writable sret(%"class.cv::FileNode") align 8 %13, ptr noundef nonnull align 8 dereferenceable(24) %44, ptr noundef @.str.7)
  %45 = call noundef zeroext i1 @_ZNK2cv8FileNode5emptyEv(ptr noundef nonnull align 8 dereferenceable(24) %13)
  %46 = xor i1 %45, true
  call void @llvm.lifetime.end.p0(i64 24, ptr %13) #22
  br i1 %46, label %47, label %50

47:                                               ; preds = %43
  call void @llvm.lifetime.start.p0(i64 24, ptr %14) #22
  %48 = load ptr, ptr %4, align 8, !tbaa !40
  call void @_ZNK2cv8FileNodeixEPKc(ptr dead_on_unwind writable sret(%"class.cv::FileNode") align 8 %14, ptr noundef nonnull align 8 dereferenceable(24) %48, ptr noundef @.str.7)
  %49 = getelementptr inbounds nuw %"class.cv::xfeatures2d::HarrisLaplaceFeatureDetector_Impl", ptr %15, i32 0, i32 5
  call void @_ZN2cvrsIiEEvRKNS_8FileNodeERT_(ptr noundef nonnull align 8 dereferenceable(24) %14, ptr noundef nonnull align 4 dereferenceable(4) %49)
  call void @llvm.lifetime.end.p0(i64 24, ptr %14) #22
  br label %50

50:                                               ; preds = %47, %43
  ret void
}