; Function Attrs: mustprogress uwtable
define hidden void @_ZN2cv11xfeatures2d33HarrisLaplaceFeatureDetector_Impl4readERKNS_8FileNodeE(ptr noundef nonnull align 8 dereferenceable(32) %0, ptr noundef nonnull align 8 dereferenceable(24) %1) unnamed_addr #0 align 2 {
  %3 = alloca %"class.cv::FileNode", align 8
  %4 = alloca %"class.cv::FileNode", align 8
  %5 = alloca %"class.cv::FileNode", align 8
  %6 = alloca %"class.cv::FileNode", align 8
  %7 = alloca %"class.cv::FileNode", align 8
  %8 = alloca %"class.cv::FileNode", align 8
  %9 = alloca %"class.cv::FileNode", align 8
  %10 = alloca %"class.cv::FileNode", align 8
  %11 = alloca %"class.cv::FileNode", align 8
  %12 = alloca %"class.cv::FileNode", align 8
  call void @llvm.lifetime.start.p0(i64 24, ptr nonnull %3) #26
  call void @_ZNK2cv8FileNodeixEPKc(ptr dead_on_unwind nonnull writable sret(%"class.cv::FileNode") align 8 %3, ptr noundef nonnull align 8 dereferenceable(24) %1, ptr noundef nonnull @.str.3)
  %13 = call noundef zeroext i1 @_ZNK2cv8FileNode5emptyEv(ptr noundef nonnull align 8 dereferenceable(24) %3)
  call void @llvm.lifetime.end.p0(i64 24, ptr nonnull %3) #26
  br i1 %13, label %16, label %14

14:                                               ; preds = %2
  call void @llvm.lifetime.start.p0(i64 24, ptr nonnull %4) #26
  call void @_ZNK2cv8FileNodeixEPKc(ptr dead_on_unwind nonnull writable sret(%"class.cv::FileNode") align 8 %4, ptr noundef nonnull align 8 dereferenceable(24) %1, ptr noundef nonnull @.str.3)
  %15 = getelementptr inbounds nuw i8, ptr %0, i64 8
  call void @_ZN2cv4readERKNS_8FileNodeERii(ptr noundef nonnull align 8 dereferenceable(24) %4, ptr noundef nonnull align 4 dereferenceable(4) %15, i32 noundef 0)
  call void @llvm.lifetime.end.p0(i64 24, ptr nonnull %4) #26
  br label %16

16:                                               ; preds = %14, %2
  call void @llvm.lifetime.start.p0(i64 24, ptr nonnull %5) #26
  call void @_ZNK2cv8FileNodeixEPKc(ptr dead_on_unwind nonnull writable sret(%"class.cv::FileNode") align 8 %5, ptr noundef nonnull align 8 dereferenceable(24) %1, ptr noundef nonnull @.str.4)
  %17 = call noundef zeroext i1 @_ZNK2cv8FileNode5emptyEv(ptr noundef nonnull align 8 dereferenceable(24) %5)
  call void @llvm.lifetime.end.p0(i64 24, ptr nonnull %5) #26
  br i1 %17, label %20, label %18

18:                                               ; preds = %16
  call void @llvm.lifetime.start.p0(i64 24, ptr nonnull %6) #26
  call void @_ZNK2cv8FileNodeixEPKc(ptr dead_on_unwind nonnull writable sret(%"class.cv::FileNode") align 8 %6, ptr noundef nonnull align 8 dereferenceable(24) %1, ptr noundef nonnull @.str.4)
  %19 = getelementptr inbounds nuw i8, ptr %0, i64 12
  call void @_ZN2cv4readERKNS_8FileNodeERff(ptr noundef nonnull align 8 dereferenceable(24) %6, ptr noundef nonnull align 4 dereferenceable(4) %19, float noundef 0.000000e+00)
  call void @llvm.lifetime.end.p0(i64 24, ptr nonnull %6) #26
  br label %20

20:                                               ; preds = %18, %16
  call void @llvm.lifetime.start.p0(i64 24, ptr nonnull %7) #26
  call void @_ZNK2cv8FileNodeixEPKc(ptr dead_on_unwind nonnull writable sret(%"class.cv::FileNode") align 8 %7, ptr noundef nonnull align 8 dereferenceable(24) %1, ptr noundef nonnull @.str.4)
  %21 = call noundef zeroext i1 @_ZNK2cv8FileNode5emptyEv(ptr noundef nonnull align 8 dereferenceable(24) %7)
  call void @llvm.lifetime.end.p0(i64 24, ptr nonnull %7) #26
  br i1 %21, label %24, label %22

22:                                               ; preds = %20
  call void @llvm.lifetime.start.p0(i64 24, ptr nonnull %8) #26
  call void @_ZNK2cv8FileNodeixEPKc(ptr dead_on_unwind nonnull writable sret(%"class.cv::FileNode") align 8 %8, ptr noundef nonnull align 8 dereferenceable(24) %1, ptr noundef nonnull @.str.5)
  %23 = getelementptr inbounds nuw i8, ptr %0, i64 16
  call void @_ZN2cv4readERKNS_8FileNodeERff(ptr noundef nonnull align 8 dereferenceable(24) %8, ptr noundef nonnull align 4 dereferenceable(4) %23, float noundef 0.000000e+00)
  call void @llvm.lifetime.end.p0(i64 24, ptr nonnull %8) #26
  br label %24

24:                                               ; preds = %22, %20
  call void @llvm.lifetime.start.p0(i64 24, ptr nonnull %9) #26
  call void @_ZNK2cv8FileNodeixEPKc(ptr dead_on_unwind nonnull writable sret(%"class.cv::FileNode") align 8 %9, ptr noundef nonnull align 8 dereferenceable(24) %1, ptr noundef nonnull @.str.6)
  %25 = call noundef zeroext i1 @_ZNK2cv8FileNode5emptyEv(ptr noundef nonnull align 8 dereferenceable(24) %9)
  call void @llvm.lifetime.end.p0(i64 24, ptr nonnull %9) #26
  br i1 %25, label %28, label %26

26:                                               ; preds = %24
  call void @llvm.lifetime.start.p0(i64 24, ptr nonnull %10) #26
  call void @_ZNK2cv8FileNodeixEPKc(ptr dead_on_unwind nonnull writable sret(%"class.cv::FileNode") align 8 %10, ptr noundef nonnull align 8 dereferenceable(24) %1, ptr noundef nonnull @.str.6)
  %27 = getelementptr inbounds nuw i8, ptr %0, i64 20
  call void @_ZN2cv4readERKNS_8FileNodeERii(ptr noundef nonnull align 8 dereferenceable(24) %10, ptr noundef nonnull align 4 dereferenceable(4) %27, i32 noundef 0)
  call void @llvm.lifetime.end.p0(i64 24, ptr nonnull %10) #26
  br label %28

28:                                               ; preds = %26, %24
  call void @llvm.lifetime.start.p0(i64 24, ptr nonnull %11) #26
  call void @_ZNK2cv8FileNodeixEPKc(ptr dead_on_unwind nonnull writable sret(%"class.cv::FileNode") align 8 %11, ptr noundef nonnull align 8 dereferenceable(24) %1, ptr noundef nonnull @.str.7)
  %29 = call noundef zeroext i1 @_ZNK2cv8FileNode5emptyEv(ptr noundef nonnull align 8 dereferenceable(24) %11)
  call void @llvm.lifetime.end.p0(i64 24, ptr nonnull %11) #26
  br i1 %29, label %32, label %30

30:                                               ; preds = %28
  call void @llvm.lifetime.start.p0(i64 24, ptr nonnull %12) #26
  call void @_ZNK2cv8FileNodeixEPKc(ptr dead_on_unwind nonnull writable sret(%"class.cv::FileNode") align 8 %12, ptr noundef nonnull align 8 dereferenceable(24) %1, ptr noundef nonnull @.str.7)
  %31 = getelementptr inbounds nuw i8, ptr %0, i64 24
  call void @_ZN2cv4readERKNS_8FileNodeERii(ptr noundef nonnull align 8 dereferenceable(24) %12, ptr noundef nonnull align 4 dereferenceable(4) %31, i32 noundef 0)
  call void @llvm.lifetime.end.p0(i64 24, ptr nonnull %12) #26
  br label %32

32:                                               ; preds = %30, %28
  ret void
}